(lp1
Vtemperatures maximum effects satellites minimum cycle nonsatellite armaghobservatory precision 18441992 length sunspot urban data warming global threat tropical reduced economic
p2
aValternative warming effect winter cause global extreme ohio thermal millennial influence winning mathematical tell past data increasing minimum temperatures bureaucracy
p3
aVmilankovitch reinforcements climate inferred critical policy northernhemisphere periodic problems records air mean curves co2 economic residence fallacies characteristics efforts randomwalk
p4
aVextraneous corrections signals data surface gridded temperature test change climatological essential temperatures oscillations concurrent evidence heliosphere circulation curves example cooling
p5
aVpast simulating forecasting future climates detection ocean change fuels dynamic ionization relative solar thermal atmospheric trends reduced inconvenient reinforcements contribution
p6
aVpossibility driving carbon correct oceans climates reconstructed thermal forcing principles rt influence ocean fuels nonsatellite 1600 rotation satellites achievements total
p7
aVscientific absence basis continents hemisphere curves climates cycle characteristics cooling science does carbon time effect fossil evolution bureaucracy cool change
p8
aVwarming second global thoughts efforts predictions deep hemisphere forecasting upper scenarios thermal threat processes bureaucracy signature phenomenological forces manifestation reconstruction
p9
aVdifferences continents temperature surface largescale variations essential oceans detection modulation low curves climatological reinforcements empirical intraseasonal time cumulative data precision
p10
aVscientific basis scenarios absence warming global impact mainly 60year centennial example modeling controlling efforts carbon trends geosciences cool geomagnetic randomwalk
p11
aVimplications climate celestial origin evidence oscillations empirical temperature advocacy cumulative ensemble analysis periodic simulations seasonal trend deep maximum threedimensional impact
p12
aVmean trends hemispheric contribution temperature dynamic climatic drop climate increasing seasonal geosciences surface politics scenarios sea composite evolution response coalition
p13
aVglobal cosmic warming rays clouds influence years processes earths role 30 climate correct random temperatures walk lengths ohio atmospheric observations
p14
aVexperimental armaghobservatory air rotation airtemperature pressure periodic lower residence observed field past variations nonsatellite modeling era reconstructions isotope seasonal essential
p15
aVpattern recent record solar signature 400 ocean phenomenological hemisphere warming data arctic years science bay corrections 20th temperatures constraints effect
p16
aVwarming surface composite solar thermal causes projection cycle mean revealed difference pollution global does climatological research reinforcements dependence 1600 concurrent
p17
aVdata cyclicity based deep millennium temperature earths solar surface boreholes warming reconstruction analysis global longterm experimental field satellites simulating 20th
p18
aVproof stability climate inconvenient ohio detection co2 composite threedimensional armaghobservatory projection 18441992 milankovitch concentration drop largescale multifractal land periodic minimum
p19
aVsolar atmosphere dioxide threedimensional heliosphere carbon data rays concentration activity effect meteorite according cosmic modulation lower galactic co2 emission cooling
p20
aVglobal warming data variability pressure temperature regime navigation influence possible astrocauses magnetic climatic interplanetary role field nearest ice face future
p21
aVglobal warming data using possibility cool view ice manifestation chemical greenland prediction changes randomwalk climatic dynamics gtobal trends geologic confusing
p22
aVview causes budget urban milankovitch evidence threat resonance fuels differences induced 2249 chemical coalition maximum according airtemperature revealed low basic
p23
aVtemperature activity winning el chemical sea benign himalayan timedelayed earth basic glaciers milankovitch fallacies gas point constraints terrestrial hemispheric era
p24
aVbenign greenhouse data anthropogenically attribution sources humans flux millennial extraneous 1600 random relative gtobal cause dynamics timedelay suggestive halt lower
p25
aVproblems ocean climatic achievements major critical tell characteristics mathematical analysis modeling science does warming global glaciers sourced slowing pattern reconstruction
p26
aVmillennial causes temperature oscillations trend globalmean periodic halt current expected global warming ionization cosmic level connection constraints rays possible magnetic
p27
aVgreenhouse global continents gases oceans climate discrepancy change effect benign changing contribution signals understanding empirical involved earths warming galactic slowing
p28
aVglobal rotation temperature circulation modulation 60year air solar atmospheric earths connection slowing comparisons greenland low nonsatellite empirical research variation atmosphere
p29
aVevolution multifractal view climatological point chemical nonsatellite himalayan gtobal core greenhouse fossil celestial mechanism trends seasonal drop humans past concurrent
p30
aVtemperature global warming trend pattern analysis changes recessional sea chesapeake drop anthropogenically resonance bay el set nino ocean 20 suggestive
p31
aVforcing climate changes geomagnetic circulation atmospheric randomwalk connection 20th be10 differences years reconstructions chesapeake processes astrocauses isotope halt policy timedelay
p32
aVconcurrent airtemperature observed comparisons surface basic efforts curves nontrivial fallacies policy principles climate example records northernhemisphere cumulative predictions based circulation
p33
aVpotential residence anthropogenically global carbon warming atmosphere sourced rt time dioxide dependence cycle test change 20th ensemble minimum tropical ionization
p34
aVfossil constraints economic fuel implications growth global warming natural reconstruction carbon trends mechanism gas circulation origin processes cumulative gases pattern
p35
aVsimulating manifestation milankovitch concept dependence geomagnetic climate time modeling meteorite causes response second analysis ionization essential influence fuels variability arctic
p36
aVsolar climate phenomenological northern temperature hemisphere signature records change coalition longterm fuels bureaucracy driving policy 1600 controlling 20th advocacy century
p37
aVexpected millennial upper navigation inconvenient years involved forces recent according 400 characteristics fallacies point geosciences science cyclicity bureaucracy correct research
p38
aVrecord roman extreme factor trends expected gases terrestrial thermal empirical stability pollution continents earth evidence geomagnetic nearest mean dynamics reduced
p39
aVanthropogenic gas greenhouse emissions mainly global warming science detection heliosphere fallacies pacific irradiance cosmic 30 threat correct revealed milankovitch future
p40
aVimpact solar variations evidence climate decadal threedimensional observed pacific carbon satellites origin terrestrial centennial thermal atmospheric basis himalayan economic century
p41
aVdioxide increasing cause change climate carbon possible climates example flux relative celestial radiation using bureaucracy observed based co2 threat economic
p42
aVfuels budget politics atmosphere periodic induced emission curves co2 ocean fallacies maximum sourced pollution sunspot halt climatological processes face gases
p43
aVclimate global earths solar driving effect role total evolution nature understanding irradiance humans variation forces mechanism earth change involved timedelay
p44
aVarmaghobservatory impact implications decadal essential dynamics gases origin geologic rotation tropical forces extreme field time current precision potential sources climatological
p45
aVnatural temperature 2249 warming analysis recent surface centennial records maximum tell anthropogenically halt test sourced time dioxide benign role upper
p46
aVtropical cloud budget associated oscillations intraseasonal radiation changes pacific decadal variability global warming nearest atmosphere hemispheric relative earth point sources
p47
aV1600 geologic nontrivial millennial maximum past achievements ohio manifestation influence isotope composite efforts phenomenological rays seasonal northern level multifractal halt
p48
aVgeosciences does exist recessional 60year confusing view sea 1600 seasonal basic heliosphere glaciers factor example difference signals climatological dynamic reconstructed
p49
aVvariation solar data longterm modulation timedelayed magnetic number sunspot land air inferred be10 cycle relative temperature irradiance greenland total amplitude
p50
aVchange discrepancy 20th climate involved geologic curves multifractal phenomenological attribution minimum greenland lower multiscale boreholes difference himalayan terrestrial bureaucracy precision
p51
a.