(lp1
Vhigh conditions area estimation stability hydrate cities hurricanes estuarine mexican height spp oryza sterility germination humid landsat sativa protected grain
p2
aVnorthern species tree sustainable birds world affect agriculture indian invasive hemisphere sustainability migratory richness lower bird chinese endangered selection removal
p3
aVeuropean transport reproduction deposition altitudinal reference wild germany quercus butterflies ka special view invertebrate acids locust ireland class acidic geomorphological
p4
aVchina characteristics indicator ad southwest lightning southeast white waveforms irrigated impulse signatures loess nonstandard mode significant seasons replacement spectral ratio
p5
aVinteractions current research products status applications report unsaturated diode fundamental trait manufacture operational fluid force ams episodes competitive sensor antares
p6
aVlongterm thermal influence ecosystem patterns pine reef great process decomposition coupled human expansion response populations yield korea disturbance functional mixed
p7
aVinformation generating closing countermeasures wastes masses schistosoma lycopersicon esculentum japonicum geography postanthesis jiangsu macroalgae chains haushi moderately justice facts seaway
p8
aVperformance dairy milk reduces forestry domestic phenotypic single cost pentafluoride trifluoromethyl barley herbivore effective projects co2 incorporating pollutants nighttime porites
p9
aVtemperature effects growth western effect increase size survival radiation period comparative mortality zone development pressure body salmon tolerance interaction pollen
p10
aVfuture precipitation evidence cold isotope prediction historical oxygen distributions isotopic present enhanced radicals stable daily warmer predictions highresolution mongolia differences
p11
aVdistribution southern fish phytoplankton optimal elevation spectrum restoration quantitative lanka sri chile pelagic patagonia lidar scots emphasis anopheles ant divergent
p12
aVriver basin marine hydrological semiarid runoff light approaches shelf yellow discharge flooding carbonate managing mammal transmission conceptual dengue nonlinear riparian
p13
aVatmospheric lake carbon forests states holocene late oh storage rate oxidation reactions reaction cl atoms absorption coefficients investigation compounds fate
p14
aVconservation mountains american wetlands corals perspectives assemblages seas radiocarbon waves networks profile scleractinian theoretical threatened landfill utility reefbuilding gps varying
p15
aVvariability energy use environmental central temperatures natural summer climate emission risk rapid global changes economic monsoon cooling mean paleoceneeocene factors
p16
aVactivity migration weather timing pinus decline increased mechanism cyclone invasion dry root projections autumn section sylvestris nile leaves material higher
p17
aVgreen program virginica heterogeneous criteria manipulated helianthus tridentata annuus gmelin potentilla regulatory lisbon larrea inducible wholeplant poikilotherm regionality legume whats
p18
aVanalysis gas emissions greenhouse north pacific co2 control related gases lifecycle contribution frequency alternative energy decadal brazil pleistocene generation renewable
p19
aVapproach based low rates wind site parameters fossil decision clouds salt spread oak cosmic support social typhoon lifehistory odp postglacial
p20
aVheat stress solar power landscape network caribbean project optical irradiance climatology basins drainage modis relict cells observing copper zostera particles
p21
aVchanging california disease growing environments benefits colorado long developing valley algae secondary solutions conversion driving heterogeneity vectors treering term expected
p22
aVassessment cycle life atlantic evaluation south australia integrated kinetics processes policy controls northwest implications plains evolutionary sulfur ethanol farming combustion
p23
aVimpacts management coastal land waste biodiversity america asia continental understanding solid uncertainty persistence biogeography rain niche municipal structures engineering alien
p24
aVarctic canada permafrost observations tundra design freshwater degradation subarctic differential rock experiments depth airborne russian organic radar crassostrea fixation vehicle
p25
aVclimate change global soil water changes carbon warming effects potential response co2 climatic responses population organic forest elevated plant vegetation
p26
aVimpact drought air region africa records japan cover emissions fuel climatechange sources experiment aspects siberia snow agricultural estimates groundwater geographic
p27
aValpine abundance waters acclimation native predation netherlands highlands pan lichens lowland shrimp labile reservoirs intense victoria web verification routes coefficient
p28
aVevolution insect bay antarctica diptera steel pest iceland enzymes hydraulic oregon shock cause times highland vegetable forced kong hong subjected
p29
aVsurface spatial united temporal large cloud structure polar cell hybrid interactive hurricane rural link projection reanalysis observation factor disturbances classification
p30
aVwarming global using environmental regional recent rainfall east dynamics genetic gradient n2o time monitoring antarctic modelling trend potentials infrared estimating
p31
aVocean circulation release aerosols overturning acidification vs security selecting modes action gastropoda hadley interdisciplinary exchanges catastrophe prosobranchia realtime silica mollusca
p32
aVtropical perspective terrestrial studies glacier assessing maximum satellite glacial india review net measurement pattern diseases hydrology quaternary arid synthesis retreat
p33
aVhypothesis britain ambrosia aedes culicidae albopictus gaia highpressure medical scyphozoan asexual seasonally plasmodium aurelia households disequilibrium haemoglobin montreal rhododendron nineyear
p34
aVmethane rice fluxes oxide nitrogen possible nitrous plants ch4 consequences australian northwestern alaska delta traits paddy estuary fields margin fertilization
p35
aVproduction diversity biomass events extreme habitat history el chemical nino italy sediment primary benthic wastewater butterfly montane endemic vertical condition
p36
aVdata temperature eastern soils sensitivity models implications productivity increasing concentrations importance photosynthetic atmospheric wetland series relationships dependence japanese statistical reproductive
p37
aVsea level crop relationship mechanisms ii peat strategy theory general baltic losses transient vibrio norwegian equilibrium symbiodinium okhotsk linkage zonation
p38
aVnew zealand overview assessments asymmetry feeding progress york genus iron cleaning biogeochemistry sensitive implications midlatitude proteins drying technological consistent decade
p39
aVgreenland industrial challenge woody paper needs twentyfirst dicyandiamide aspen plantations literature grazed symbiosis tremuloides eucalyptus condensed genotypic instrumentation inhibitor recalcitrant
p40
aVpast salinity reconstruction compositions shrub algorithm seagrass foraging washington highelevation dominance modulation copepod fuzzy betula ranking amplitude paleoceanographic elevations snake
p41
aVvariation modeling application environment simulation forcing measurements leaf lakes efficiency coast health radiative scale age northeast derived characterization subalpine oil
p42
aVice comparison annual breeding wave sheet causes core recorded response critical city melting instability number pakistan thickness interglacial protocol globalwarming
p43
aVtrends coral usa ecological record spring loss northeastern scenarios bleaching southeastern reefs rocky red dates projected russia tolerance origin arrival
p44
aVchemistry deep novel malaria kenya date bloom thermohaline wet viability etch limestone clean imaging selective ether creation drilling volcano offspring
p45
aVcase simulations recycling cyclones indices feedback sector transportation gcm identification electrical fertiliser scaling simulate japonica deal dna madagascar column stratigraphy
p46
aVstudy model systems forest boreal field treatment event canadian spatiotemporal tool wood ground southwestern mapping expression electricity gasphase caused variables
p47
aVscience materials construction solution insulation applying glass porous crosssection medium cc4f8 refrigerator foams care search prepared reuse rigid polyurethane compatible
p48
aVvariations development seasonal range local early europe years adaptation rise associated sediments island formation predicting regions sealevel warm national inferred
p49
aVancient nematode sierra nevada arc repens geological avhrr collapse bp infestation locality skin terminal stem trifolium ohrid mauritania correcting instrument
p50
aVplasma exposure environmentally electron etching sf5cf3 fluorinated bands gases reactive dielectric amorphous films dissolution ion alloys preparation oceanographic airconditioning film
p51
a.