(lp1
Vgases renewable plasma scenario aerosols environmentally novel greenhouse sensing geoengineering practices protection tropics tool extratropical intensification etching using reactor signals
p2
aVuncertainty northwest analyses derived integration internal bacterial best structural market mussel good aggregate timescale really include gcms cdm bioinvasion naturalgas
p3
aVmigration solid cycles municipal bird enso timing autumn reindeer freezethaw greater utility migrant programs indonesia reverse adaptability yellowstone enzymes israel
p4
aVpopulations index projection salt estuary invasion abies predicting native virus climaterelated variation mathematical ireland marshes revised australis invertebrate queensland suitability
p5
aVassessment cycle gas life greenhouse energy environmental emissions production waste study case fuel carbon reduction dioxide analysis co2 use emission
p6
aVrice yield biofuels thailand expression plain requirements cultivars paddies oryza sativa catalyst alteration agroecological generators night detrimental genomic harvest mammalia
p7
aVmethane contribution feedback oxidation buildings mountain paddy mechanisms dry fields rocky manure emission flooding albedo british climatology techniques cattle regression
p8
aVmollusca stressed bermudagrass canaliculata nucella aptitudes islandica swine edge gastropoda sealevel southafrican context measurements bottomwater rise global 18662002 shells longistaminata
p9
aVconservation local glacier estimation quantifying phenological soybean higher dispersal yields limit variables value retreat taxes site nw andes duration continuous
p10
aVaustralia events relation relationship research source results properties materials california new extinction cell zealand earths relationships biogas role climate upwelling
p11
aVenvironment changing food variation indian increasing flux processes permafrost chemical concentrations glacial microbial constraints disease 20th versus american mitigating climate
p12
aVacute failure refuge embryos retrieval latinamerica renal sunlight scophthalmus maximus turbot pacificus perfluoro2methyl3pentanone e10 hantavirusinduced perfluoronbutyl yolksac puffinus shearwaters no2
p13
aVcentury twentyfirst ensemble satellites phenomenon half palaeoclimatic remobilization retrospective icelandic nineteenth cryoturbated entomology expecting kalman marmots marmota forensic secure refugees
p14
aVclimate global change warming carbon temperature water effects soil ocean response changes effect thermal forest surface impact species nitrogen model
p15
aVecology bioenergy link forestry plantation projects improving mitigate himalayas republic czech unitedstates butterflies 2050 wintering costeffective wastes doubling biomethane petrol
p16
aVsystems agriculture recovery oil sustainability estimating brazil reduce power fossil emissions global energy combustion world methods accounting warming chinese aerosol
p17
aVway web ahead orange multiyear forward build sour albumax nuclearplant aurantium downregulation cicadellidae bipunctata melichar homoptera farming dryland notill costeffective
p18
aVaquatic refrigeration advances wildlife paper scaling theoretical second diagnosis fluids fluid anopheles investment transcritical manufacture 1995 working speciesspecific return pure
p19
aVclimate change global trends longterm warming regional sequestration coral northern patterns evaluation vegetation scenarios drought sustainable application temperature simulation recent
p20
aVhigh coastal co2 ice effects biodiversity temperature arctic sea elevated climate capture productivity matter plants winter freshwater increases warming size
p21
aVtropical pacific western simulations activity variability seasonal observations global warming coupled north precipitation asia cyclone cyclones wetland canadian climate intensity
p22
aVfootprint including discounting humaninduced intergenerational exchanges oceanatmosphere giss improvements demographics manifestation transsaharan synopticscale timedependent substitutability randomwalk puffin tufted csiro anas
p23
aVendangered managing conceptual farm operation rare interpretation interspecific altitude farms sphagnum savanna leads pollination aerial participation indus cruise arcticalpine basal
p24
aVtransport strategies genetic asian rapid shift electricity corals planning warmer summer benthic monsoon predict abrupt mammals face netherlands sulfur gene
p25
aValternative paleoceneeocene aspects supply fluctuations optimal perspective forests abatement approaches physical pleistocene refrigerants mapping discharge pliocene pools strategy erosion near
p26
aVefficiency design nuclear rainfall scales persistence origin downscaling russia problems identifying iberian birch tracks treering improves considering thresholds cooperation energy
p27
aVsolar variations radiation budget uk project enrichment total irradiance measuring rays uvb correlations kenya tracking ultraviolet microwave modelled line vector
p28
aVcover snow characterization 50 diurnal links swiss influencing labile mountainous denmark asymmetric gisbased preparation requirement eurasian indicate 20km microsatellite baiu
p29
aVatmosphere trend decadal australian models continental carbondioxide traits determination peat problem delta vertical testing making profiles microalgae individual losses temperaturedependent
p30
aVcontrol reef assessing expansion spain circulation general removal climates southeast hydrological intertidal transfer overturning mineral seawater iron geological type poland
p31
aVheat spatial evolution temporal interactions related earth importance cloud detection direct overview mexico function uncertainties hybrid induced climate amphibian key
p32
aVgeneration turbine cenozoic connection convection biogeographical extension comparisons millennial drop twostage metamorphic utilizing ragweed atmospheres artemisiifolia airtemperature snail mts biostratigraphy
p33
aVfish america black diversity early north boundary late oceanic eocene year spruce environments selection fisheries plankton driven iran equatorial addition
p34
aVmitigation economic atmospheric challenges absorption investigation oh measurement pinus reaction rate reactions improved root compounds light kinetics fate methyl cl
p35
aVmeasurements chemistry area stability cost hydrate conventional kyoto resilience complex melting alternatives gas ir chamber mechanism porous media treat severity
p36
aVadaptation oscillation potentials el phytoplankton zone nino infrared public parameters warming vulnerability resource quantitative global indirect germany siberian behaviour common
p37
aVlichens taxa monitor svalbard survivorship dispersion epilithic spitsbergen suggests recession periglacial dem detriments postbleaching drosera landforms digitata montipora brunei darussalam
p38
aVatlantic extreme evidence maximum japan warm dynamic cold sediment optimization quaternary minimum pollen years reduced observational tree ipcc humidity affects
p39
aVmountains gradients profile elevational sweden radiocarbon infections ages tickborne encephalitis acquisition carpathian estuaries parasite arizona puerto resonance rico qinghaixizang coherence
p40
aVimpact climate river change european europe risk basin central global warming range potential projected consumption mortality green korea costs frequency
p41
aVgreat does science perspectives protocol program britain politics issue multigas elements assemblage montreal global interdisciplinary care ambrosia flexible fresh climate
p42
aVanthropogenic sources industrial understanding natural rock german sink sinks important shallow pest dangerous examples addressing insects legislation volatile endemism managed
p43
aVmarine communities past projections weather large regions present groundwater future dependence flood measures cool severe choice networks concept update contemporary
p44
aVcement endogenous fuelling dryfixation merge trial belite lcas curbside multiregion chains corrosion contiguous sun redesigning approach challenge eukaryotes layerthickness hydrologists
p45
aVoxide nitrous process fluxes decomposition emissions n2o ch4 methane quality soil abundance affected litter cropping corn rice irrigated grassland household
p46
aVeast antarctic birds mass body west glaciers antarctica oscillations mixtures shelf equilibrium note little semiconductor height reanalysis persistent did passerine
p47
aVchina forcing climate united states policy change radiative rise region global holocene agricultural northeast coast satellite sealevel island physiological international
p48
aVethanol fermentation interface tourism continents subsequent converting cellulose discrepancy tundrataiga cellulosic recreation areas fleet change bengal gassupport contaminant nickel e85
p49
aVtime ecological degrees breeding spring reproduction series gulf causes salmon reproductive engineering technique determining significance adaptive phase date earlier standards
p50
aVhuman islands springtime geomorphology st frequent geology parasitism nonstorm abyss cointegration faroe researchinstituteofinnovativetechnologyfortheearth rite unpredictability caterpillars diarrheal keihasjarvi virgin southpacific
p51
a.