(lp1
Venergy production waste china solid hydrogen renewable treatment municipal process oil case turkey challenges heat cooling biodiesel strategies power improved
p2
aVmarine late disposal province boundary large clouds trees cycling layer way declines glaciation extent extinctions hypothesis effectiveness igneous shandong linked
p3
aVgreenhouse gases emission agricultural aerosols sources winter el experiment versus uncertainty conversion brazilian changing farming reduced landuse practices syngas amazon
p4
aVgood service game schools purchase games applicability editorial nonparticipation treaty suboxia centurys co2enhanced historic integrative gmes colour precursor globcolour corncob
p5
aVfuture past fluxes technology pollution japan evidence low temperatures kyoto related tillage years mass cost present wetlands holocene composition 20th
p6
aVh2o2 diluted adiabatic treering co2n2ar thorimsnes abies households sylvestris stem changedagger inhalation transferred msr lwrs th233u upu moltensalt 3pg agerelated
p7
aVtemperature carbon management forest sequestration trends tropical pacific changes longterm western land cyclone mechanisms boreal budget increases sensitivity range australia
p8
aVco2 study power simulation elevated plant capture case generation combined fossil productivity absorption constraints utilization current process oxygen evolution levels
p9
aVhurricanes instability modeled h2co3s phippsburg fibers opinions studying anomalies hydromagnesite atlin playas informed farmers smoke belief expert transferable az31 srf
p10
aVsoil economic regional estimates scale downscaling stocks rainfall density abrupt peninsula content chinas residue plain aspects applied explicit determination france
p11
aVrubisco barnacle breaker recover difficult activase repository requirements hlw drivemanager ecodrive poor bibai fen sasa acquisition bangiales exogenous haitanensis emersed
p12
aVdelta13c mixture co2h2 semiclathrate edulis h2n2 voltage circuit dc mesoamerica continues tragedy stealth obesity intervention commons peasant liping guizhou pion
p13
aVoxide nitrous plasma method methane decomposition recycling prediction pressure multigas etching coupling causes dielectric residues cleaning climatology nf3 dry barrier
p14
aVperspective basin alternative biofuels mediterranean moisture lake warm mixtures germany partial indices british investigating evapotranspiration c4 moderate geochemical climates nh3
p15
aVenvironment food prospects trading projection credit schemes fluoride rf replacements pakistan insurance discounting services smallscale paths semiarid intergenerational collection mgo
p16
aVfossilfuel price yr palustris methanoplanus sebr 25000 indonesia onedimensional medium casestudy photoresponsive waterrockco2 heterojunctions bonito nanoparticles rio succession purposive incognita
p17
aVecham4opyc3 cf3ochfcf3 trifluoromethyl inflows murray colombian highaltitude reevaluation stark 1222tetrafluoroethyl burners agropastoral imagery children estimating carbonmonoxide footprint romagna quadrupling feedlot
p18
aVmethane methanol synthesis benefit cells coalbed molten negotiations sand photo scco2 liquidscco2 biphasic initiatives hidden lighting formed perturbations photocatalyst tio2
p19
aVsouth coastal countries america developing opportunities photosynthesis example bay strategic mitigate option hydrothermal preference globalization southwest erosion unitedstates mangrove landsea
p20
aVcorn irrigated nitrification affected slurry nitrousoxide inhibitor introduction inhibitors o2 dicyandiamide belt isomers bath cf3cfchf tonne 11year depends pyrazole trillionth
p21
aVoptimization geoengineering dynamic cell products insulation problem cold dynamical operation drying nonlinear highpressure savings cycleclimate taking foam woody creeping rhodopseudomonas
p22
aVoxidation oh radicals o3 upper influence albedo troposphere gasphase flooding activities o1d cl limit extratropical spatiotemporal cao poland perfluorobutenes cf3ch22ch2oh
p23
aVthermal maximum recent european central eastern paleoceneeocene isotope record changes scientific selected developments vegetation primary reference millennium highresolution stable suitable
p24
aVnorthern high ecosystem control oceanic forests events project ice type hemisphere function canadian variability interannual microbial driven negative extreme weakening
p25
aVatmospheric radiative forcing different flux caused research observations landfill observed trace potentials eocene economics ether estimate risks types wave fluctuations
p26
aVtime ecological mountain amazonian series engineering glaciers montane seasonality aogcm compared pretreatment chlorofluorocarbons failure fuelcell beetle solarhydrogen lodgepole deficit ecosystematmosphere
p27
aVpolicy design implications transportation green vehicles crops small manure perspectives lifetime making compost construction projects security pasture house 2030 mexico
p28
aVandc4 cfs truth hfe ncep aomegadialkoxyfluoropolyethers kerala predicts homegardens considerable eastjapan mediated monooxygenase discriminating nonrobust planetary methanobactin sprague inconvenient c3
p29
aVclimate change gas model using co2 global greenhouse ocean emissions century simulations coupled sensitivity variability circulation response climatic anthropogenic changes
p30
aVemissions systems co2 nitrogen rice soil n2o potential china europe reduce ch4 field southern yield source electric wheat conservation fertilization
p31
aVapplication mechanistic taxes material coalfired choices fluid nested boiler fund trout special solidfuel vehicular stabilizing conflict redox producing single viable
p32
aVoverall triggering speciesrich little venting landice amoc ancient agent blowing midpliocene warmth stronger hfc245fa hokuto en niveau amenagement concern opercularis
p33
aVnew technologies options national optimal pollen deforestation transition loss case silicon controlling sectors fusion various incorporating needs path park sequence
p34
aVrecovery enhanced co2 applications production oil rates characterization adsorption reactor catalytic injection separation fixation h2 sf6 anaerobic cogeneration coefficients rural
p35
aVsolar variations radiation attribution produce forced phytoplankton kenya irradiance multiple analysing uvb photovoltaic calcium revolution visual interglacial brown rangelands odp
p36
aVsupply abatement pollutants sewage caoh2cao semiconductor combinations perfluorocompounds proper postkyoto gasliquid curves generalized interface sensitivities thermodynamics leastcost interpret aeropropulsion superconducting
p37
aVreconstructions biohydrogen switzerland crisis venting paleoclimatic moth bibio nbtisi visiblelight paleoanalogs hills ringdown coli wild basel analyzer 19692007 quantities cavity
p38
aVenvironmental fuel biomass performance transport issues nuclear materials building degrees burning refrigeration science ethanol environmentally refrigerant challenge stoves decomposition advanced
p39
aVmixed 10 michigan cuoal2o3 carrier kwth combustor stratigraphy deciduous prototype finance inshore agreement severn barrage tidal strontium 100year uccle belgium
p40
aVcycle assessment life models based storage comparison carbon feedback soils india integrated lifecycle framework wood pyrolysis costs produced release used
p41
aVnovel engine concept ci 238 applying pion planetary homogeneous joined exchanger aero taklimakan zeitmop interacting rubberseedoilfueled complexes superplume preserved paleooceanic
p42
aVflow protocol does overview regimes managing climaticchange corals farm 2xco2 montreal body detecting landice midlate porites leizhou amoc lutea cool
p43
aVanalysis use scenario fuels experimental interactions population results state liquid comparative resource iron decision vs protection condition ipcc greenhousegas efflux
p44
aVsea approach modeling arctic terrestrial ecosystems surface carbon role coral anthropogenic reef temporal acid footprint pattern steel period spain metabolic
p45
aVcharacteristics acids free spacer scanning photosynthetic bacterial acceptance influencing catalysts turtle fatty dispersion korean automobile hfo1234yf calorimetry adsorbents regeneration microscope
p46
aVdevelopment sustainable region assessing canada biological diversity light peatlands spring malaysia degradation finland parameters photocatalytic peatland migration ecology timing operations
p47
aVsoft dehydrogenation landmanagement ethylbenzene vanadiumantimony supported fishzooplanktonphytoplankton seals accurate offspring sex elephant mediates inspecting undervalued minor paleoecological volatility diagenesis prioritizing
p48
aVimpact climatechange river coal estimation industry local evaluating ozone great statistical tropospheric carbonation action refrigerants plains background leakage snow efficiencies
p49
aVglobal warming climate carbon change dioxide effects potential emissions effect impacts impact mitigation response water reduction future changes north precipitation
p50
aVatlantic united states rise sealevel trend context coast measurements overturning pco2 meridional midholocene agroecosystems cooperation lost endangered hot cutting adapting
p51
a.