(lp1
Voil life cycle assessment used palm comparing tundra screening simultaneous appliances strength office cooking characterisation district computer energysaving peak toxicity
p2
aVextent reactive ahead sensitivities interface gasliquid generalized limited build thermodynamics hard tundrataiga ratebased store foresight biorefineries nuclearplant msmr gashydrates nonequilibrium
p3
aVaerosols syngas amazon gases greenhouse sulfate threshold magnesium significance country program hydrology range convective catalysis persistence hydroelectric compared modification activation
p4
aVschools passivesolar environmentalissues tips lag business uk world flooding possible contribution carbondioxide global exhibition raise zonallyaveraged basque suboxia resolved horticulture
p5
aVwest pools biotic icesheet core service biogenic detailed beneath bank peripheralpopulations en amenagement niveau courbes centurys suboxia co2enhanced deduced paleomonsoon
p6
aVsomali jet changedagger inhalation hydrogeochemical geologic learned landfills icehousegreenhouse insensitivity 1896 doubled households nonindustrial bioreactor returning gambia close morphology 3pg
p7
aVenvironmentally clean vertical benign dielectric airconditioning humidity friendly update etch presence trends accelerated ethical metallic preventing profiles coating refrigerant dilute
p8
aVconnection chemistry scales electricpower hidden considering cmip2 carbonnegative eucalyptus charcoal pacificnorthwest harm slovenia htgr mozsm5 bronsted dehydroaromatization atmosphericbiospheric 18 briquettes
p9
aVh2co3s climaticchange hurricanes forest tropical global cambodia forestrybased phippsburg incentives petit presentday northeast odp moss lcia money seductive cultivars probabilistic
p10
aVconsequences africa dynamics downscaling balance estimates carbonation quantitative wave early ecosystems interaction damage hurricane origin convection metabolic economic siberian region
p11
aVpast monsoon climatic oxidation summer present indian countries asian developing troposphere tree landuse long composition years opportunities cycling uncertainty forestry
p12
aVlandscape mixture co2h2 semiclathrate opinions valley linkages hierarchical uninformed informed dongguan h2n2 dc breaker voltage circuit drome expert transferable belief
p13
aVplasma multigas pressure h2 causes etching climatology cause dry behavior barrier pfc alberta dissolution radioactive ptal2o3 2007 immobilization caoh2cao inductively
p14
aVbiofuels moderate worse unitedstatesdepartmentofenergy plantpollinator disruption peugeot psa citroen researchprogram storminess yr 25000 british greenhouse lasting transportation naturalgas era warming
p15
aVpeatlands services restoration revised realistic hydrofluoroether aomegadialkoxyfluoropolyethers class hfe delivery climatesociety achieve climateprotection contributing buying ecosystem food lowcost agriculture environment
p16
aVbioenergy wastewater aerobic fossilfuel drying cretaceous stoves cook landfilling humans solidfuel willow casestudy indonesia woody short domestic thermoelectric force return
p17
aVphotoresponsive nbtisi heterojunctions visiblelight simulationmodels waterresources pacificnorthwest nanoparticles sensitivity wheat climatechange bibio warming global burners agropastoral imagery children estimating reevaluation
p18
aVevolution relation concentration pine extinction kinetics fermentation pinus mass decrease millennium coalbed isotopic hotspots alps paddies gasphase endpermian benefit cl
p19
aVradicals holocene modern desert geographical alteration erosion cf3ch2ch2oh initiated cf3ch22ch2oh hfc resultant sahara disturbance sulfuryl phippsburg sprague andc4 fleet c3
p20
aVn2o nitrousoxide nitrification introduction inhibitors dicyandiamide depends populationadjusted introducing 11year mesopause hammonia urease ricewheat indogangetic urea lettuce glasshouse deleterious osaka
p21
aVgeoengineering dynamic problem optimization trade physical dynamical insulation oceans atmosphereocean union nonlinear dangerous concept perspective avoiding interference sand taking polygeneration
p22
aVheating engine products geological turbine acid wood grasslands catalyst ir cf4 nations proposal ohio poland stored assess ci memory activated
p23
aVselected developments recent scientific knowledge doubling r134a clivar c20c 21stcentury days replace refrigerator number r152a morphology tube southernhemisphere 2025 hydroforming
p24
aVevents science forests overview oceanic function driven molecular rumen complexity mechanistic nino engineering microbial state amazonia anoxic control secondary threat
p25
aVwheat forcing tillage economics radiative simulating trace rice black climate cultivation greenhouseeffect sf6 affecting yield tropics mixtures aviation density total
p26
aVtechnology applications vehicles optical chlorofluorocarbons solarhydrogen fuelcell fiber pretreatment alloys energyefficient hts breakthrough alkaline zeolite invessel torch amorphous chillers solve
p27
aVinsurance promoting nio nia pacificamerica teleconnections market buying solarelectric steelindustry energyconservation mediumsized finance construction vehicle companies design better making problem
p28
aVshopping gfdls peas sediment carbide tethyan cotton needles extremes andc4 hydrofluoroethers spawning hours seawater buffer tricycles planetary sedimentdwelling mediated oncorhynchustshawytscha
p29
aVcarbon emissions co2 energy gas global greenhouse dioxide environmental climate change production warming methane study cycle mitigation power emission using
p30
aVeurope sequestering stream personal saved greatlakes address urgent escape landatmosphere airconditioners room arable herbs forestation eddypermitting blooms stealth intervention obesity
p31
aVinduced projects material choices green information stabilizing children paradox conflict focus special artificially drives viable inception electron taxes bowl catching
p32
aVhydrologic external concern warmth sclerochronology hokuto megasolar disaggregation stronger transboundary sharing midpliocene lightduty topselling realm neptune chlorofluorocarbon energybalance opercularis aequipecten
p33
aVmodified incorporating flows addressing deep porous multiscale diffusion petroleum gashydrate gap provinces geochemical o2co2 crossscale chlorine injected analogues reservoirs literature
p34
aVcoefficients irradiance 238 355 ohcfh2ch2ohreaction inconvenient truth salina dunaliella carotenoids intercycle cf3chfch2f hfc245eb hfc263fb chf2chfchf2 hfc245ea 375 cf3ch2ch3 o1d variations
p35
aVkenya analysing revolution calcium airport dissemination quiet flooded dinitrogen encapsulated carbide nitrousoxide policyrelated carbondioxide effect rice methane emissions acetic potassium
p36
aVconsiderations stress tolerance technological price traits acute onedimensional strengths c3 requirement medium bioplastics permit curves plastics petroleumbased hightemperature temporal plantresponse
p37
aVbibio nanoparticles come idea visiblelight heterojunctions nbtisi engineering photoresponsive ecological time greenhouseplus alleviate highcarbon application oceans recent appliances indicator asset
p38
aVchallenge degrees views meet chance oxidize certainty cellulosic powders fighting fuelbased energyproduction helping photovoltaics cleanair imperatives biomass ethanol fuel cogeneration
p39
aVdeciduous paleoecology c3c4photosynthesis deriving coniferous past paleoclimate reconstructions climate michigan mixed systems sensitivity ecosystems northern forest response future global change
p40
aVproduced structural generalcirculation interpretation correlation enzyme creation cod output emf12 freundii purified citrobacter industrially cradletogate novozymes scandinavian gamma thinfilm multicrystalline
p41
aVunited states sealevel rise coast midholocene hot endangered lost save glacier billion 14 changerelated accounted lives analyses seasonally delta18o srca
p42
aVdoes implication climaticchange corals detecting montreal body smallscale signals cool tell size lecture analyzing 1997 leizhou lutea midlate porites participation
p43
aVperspectives sinks managing understanding security farm mexico nuclear important pelagic relevance desalting danish asianpacific energyenvironmental contemporary today underwrite impacting markers
p44
aVcenturies germany lake midcretaceous climatechemistry emergence visceral leishmaniasis tanganyika borehole 500 ad emphasis unprecedented sahel detroit erie photooxidant fe2tio5 h2reduction
p45
aVacids free hfo1234yf catalysts automobile achieving fatty pepper pglycoprotein inhibition extract flammability 13x multitransitionmetalionexchanged fender exudation amino rhizodeposition garage phospholipid
p46
aVbiological tool malaysia degradation ecology peatland assessing effectiveness operations finland peninsular disposal glad southwestern forested co2ch4 ammassuo islands kalimantan 2006
p47
aVthorimsnes seals sex offspring elephant mediates minor smooth actinide fissile lwr bombay waterresource madras moltensalt lwrs transferred th233u upu msr
p48
aVtropospheric ozone action spain background climatechange candidate slowing chf3 statistics arising reconstructing maine prognosis centers nh3 nw landsea fishing estimation
p49
aVclimate global warming change changes model temperature response effects future atmospheric co2 impact ocean tropical carbon sensitivity potential precipitation forcing
p50
aVleastcost abatement planning curves supply global greenhouse enso troposphere replacing sylvestris regardless h2n2 mire metamorphism climatedriven hfc245ea documenting altered actions
p51
a.