(lp1
Vgreenland hydrate norwegian height challenge landsat melt geothermal transform forces drilling aspect clathrate fall seismic destabilization advantages surveying oceansat1 interstadial
p2
aVsoil carbon co2 forest organic nitrogen methane emissions effects temperature evolution warming fluxes different respiration gas dioxide soils atmospheric ecosystem
p3
aVwild germany c4 diptera view oregon invertebrate longevity shock class ireland veterinary et farmers probable heteroptera actual passenger pitfalls fingerprints
p4
aVbay environments advances cultivated loess driving fertilized vectors crassostrea improvement denitrification oyster enhances concepts virginica arthropods students wildlife force ectotherm
p5
aVmaximum products intensity cloud dependence applications network daily statistical cyclone flood rocky highresolution prairie observed data optical extent minimum 2006
p6
aVhuman activity hemisphere scale simulations circulation age mean salinity enso radicals islands processes turkey frequency oxygen assemblages induced rock atlantic
p7
aVhealth environment built gap bottomup countermeasures generating newly genes frog integrity proportion genomics expanded genetically topdown golden wealth facts predictable
p8
aVcoral performance extreme temperature reef elevated effects growth co2 influences loss high photosynthetic sediments isotope sediment stress physiological reduction photosynthesis
p9
aVinteraction measurement state determination tropospheric soybean temperaturedependent gasphase radical simple sex networks laser seaice monitoring strength contemporary capture space microalgae
p10
aVpresent invasion forecasting differences substrate identifying mercury culture diet suggest affecting infrastructure stressors concerns biomarkers embryos stresses societal cellular gastropod
p11
aVevent reversal chronology geomagnetic repens excursion bp infestation stem boda trifolium detailed window kyr nur lop australasian corallium rubrum silt
p12
aVso2 cosmogenic flue depends indus nuclides msa o2 environmentalquality circle shoots photorespiration smelter nelson nuclide s35 rocks conflicting pbzn measures
p13
aVwave theory nonlinear varying gaia ray propagation shoreline spatially opec rossby stationary geophysical thinking longshore direction redistribution student exercises dissolvedoxygen
p14
aVcoast related wetlands corals migratory biodiversity niche coastal acute engineering numerical biofuel theoretical emerging seas world uncertainties dairy sri lanka
p15
aVissues transmission dengue symbiotic threat influenza prevention ross trout viruses beef tax competitiveness warning terrain priorities acceleration fever generated cowcalf
p16
aVassessments progress material insects spectral cleaning technological consistent cirrus choice multiangular important electronics migrating polarized detected workshop metapopulations visible contrail
p17
aVgreen heterogeneous lisbon catalyst regulatory let legume complement cellbased ascension parable sorokiniana instruments datacenters laccase augmentation contra spaces kurihara ict
p18
aVgreenhouse gas gases power emissions energy strategies renewable rate generation alaska optimal buildings benefits storm absorption long inventory analysis caused
p19
aVpotentials infrared phenological deposition transport delta alternative paddy fields oceans warming thailand estuary salt fate sweden global southeast ozone radiocarbon
p20
aVproject arable lands altimetry microwave wastes maps coralreef sounding reconstructing thymol carvacrol odor offsetting confronting icesat morning glory guineaqueensland papua
p21
aVorigin problems properties disaster cfc landslide substitutes initiatives character realtime solving legislation prognosis ensolike halon toxicological conception pyrenean peneplain ordos
p22
aVatmospheric chemistry oh policy kinetics radiative landscape american forcing fossil reaction cl atoms farming conceptual kinetic basins investigation methyl ir
p23
aVglass reuse rpc freonless heliothennal heliohydro beer percentages operated streamer mixture singlebed istiophorid prediction jujuba presentation indiana permocarboniferous radiance swarm
p24
aVairborne allocation radar gps radio occultation movements digital coherence sar locality groundpenetrating analog terminal vienna geography sunshine reporting spaceborne dusty
p25
aVreview increase waters synthesis earths daphnia infectious rising behavior cyanobacteria borehole fitness assemblage parasitic association native adjacent tracers climaterelated tickborne
p26
aVclimate change global warming temperature impact environmental changes assessment cycle effects impacts water potential life variability north tropical study species
p27
aVcoefficients storms uv injection hfo1234yf shore biota description aquifers saline tube probabilities horizontal flowing synergistic equation ichnofacies interpretations mpa ciconia
p28
aVplanning plasma antarctica light root rings refrigerant implication mixture maple natural turbine alternative trifluoromethyl pentafluoride kong hong cause dielectric etch
p29
aVreservoirs distancetotarget jupiter endofseason ebullition 19952005 weighting weighing pastureland boosting vulnerable economicimplications inupiaq la uppermost pisidium 19942008 solve fm coverinduced
p30
aVecology extinction earth persistence clouds 50 quantitative combined cosmic wind face speed ne spectroscopy isotopes physiology integration rays florida standards
p31
aVcoupled circulation modeling release gcm ocean model revisited deep inductively hadley fluoride exchanges catastrophe improvements plasmas warblers hardboard epidemic walker
p32
aVstudies brazil hydrology quantifying glaciers retreat andes dating duration glacier dependent value sequence flows floral sink tools palaeoceneeocene metal kilimanjaro
p33
aVhypothesis niches 19552000 supercontinents rhododendron economicissues wander true conjectures refutations null nullifying migrate realized dryness efts degeneration thinking domain gaia
p34
aVpossible northwestern biogeochemical cycling groups basis saskatchewan recently relating principle processbased mosquito ao periglacial argentinean burned cordillera guangdong mariana dem
p35
aVel nino dispersal mammals empirical abrupt upwelling extinctions endemic fauna miocene countries biotic carbonate lifehistory foraminiferal vibrio montane prolonged 2005
p36
aVdecadal series time pliocene significance technique policies predictability analyzing determining c3 perspective features turtle examination atmosphereocean utility circumpolar distributional mitochondrial
p37
aVpeat methods chamber losses partial clean inverse synchrony stomatal avhrr shading paleoecology plans conductance skin identity isccp proximate art plasmaenhanced
p38
aVasymmetry promotion exploited replacing cfcs diazotrophs nonsymbiotic cropfarming mexico warming global sustainabilityguided change implications climate depthmediated lotus treegrowth shellfish botrana
p39
aVpaper instrumentation eucalyptus recalcitrant hemp edible rodentia industrial glis pushers laggards leaders holebreeding dormouse gliridae plantations cascading printing billets conflicts
p40
aVpermafrost subarctic russia cell active layer affects butterflies trading problem large number algorithm foraging enzymes dominance signal failure eurasia voltinism
p41
aVchanging quaternary discharge managing scientific catchment influenced fruit river scaling term proxy dryland fluvial late lowlands concept adaptations hydroclimatic zimbabwe
p42
aVaerosol industry options challenges acid reconstruction air characterization pollution key reduced semiconductor persistent modis controlling washington adriatic quebec insurance pollutant
p43
aVrecord bleaching coral coupling xinjiang britain volcanic action alaskan relevance ambrosia growingseason asteraceae 8200 households energyrelated reassessed ratcheting sum transmissions
p44
aVmalaria novel typhoon wet slope platform probabilistic limestone calibration synthetic selective colombia spells substance timescale discovery continent resulting code microfloral
p45
aVindices zones climatological identification location japonica deal objective buffer bavarian paths toxin angiosperms japanese superplume beetles cryptomeria carabidae climatesensitive economyenergyenvironment
p46
aVclimate change boreal global forest warming arctic canada conservation migration tundra source boundary island rapid oxidation implications atmosphere does national
p47
aVinsulation applying cc4f8 foams medium prepared search crosssection rigid chlorophylla dimethylsulfide benguela compatible polyurethane blown sargasso insulating substitution pentane hcfc
p48
aVrise mechanisms sea largescale sealevel level resource inferred warm associated fluctuations norway common strategy late dynamic nuclear avian public amazon
p49
aVdetection functional interactive barrier kenya phase links ancient electric roles stochastic classification hemispheric vehicles automated forced hybrid geological modelled sampling
p50
aVreactions solid waste environmentally prospects municipal individual electron structures lifetimes cod enhancement sf5cf3 fluorinated reactive etching ion films amorphous airconditioning
p51
a.