(lp1
Vclusters scrub avhrr cluster engine methanotrophs flowers imagery marker hch srtm hotan predictionnational mse gen thorn madre mexicana headstreams zoige
p2
aVweathering amf silicate ni brf hfmd highmountain extraradical erm magnetite hyphae lanceolata neglectus multi longleaf tilde maltese oligotrophy dilute habitable
p3
aVrepresentatives conflicting irreversible swh subsaharan roughness crispula locusts cypress 17th everglades stationarity lichenspruce gmt visitor speculation mammoth glaucoma clues celsius
p4
aVlake sediment lakes oxygen glacier water sediments records glaciers isotope glacial thousand carbon isotopic cores parts event delta13c record stable
p5
aVenvironmental materials performance life process lca recycling used depletion industry use technology new ozone alternative potential material warming building paper
p6
aVcarlo monte 3d nonparametric tb nothofagus dormant wvp 045 active pumilio metabolite exhaustion flooddrought kin conduction illustrating bimodal thickness croatia
p7
aVcpr daphnids aam hbi1 wyalkatchem dryandra landsurface wif photorespiration politicians 60degrees desiccant exchanged balearic thomas cordatum fledglings bytham lef costefficient
p8
aVwolves anglica psa grizzly muskoxen igpr metazoans guinea devoid chestnut savannah papua yellowbellied hartebeest happisburgh meltponds banas hares worm quartiles
p9
aVberry pulmonary owl nan spontaneous jev useries chattian anas wsg konza cyanophytes gpts chrysophytes diazotrophic multifractal rupelianchattian relicts convincingly hantavirusinfection
p10
aVtemperature surface precipitation mean period warming annual degrees summer trend increase trends air global temperatures winter days years observed variations
p11
aVco2 elevated temperature ambient concentration photosynthetic effects concentrations ecosystem atmospheric mu leaf air treatments tundra temperatures net chambers uptake response
p12
aVpoc necrosis ecotypes kabp palustris aogcm overstorey subzone accessions conferred cccma lanatus ecotype neurolipofuscin onward asat 740 heaths antecedent tularemia
p13
aVtemperature degrees temperatures species population populations growth fish mortality effects breeding increased size food higher rates body effect birds reproductive
p14
aVcwd discontinuities heatstressed sargasso semivolatile haptophytes ultisols prompt 2055 corallium ddmsp pdmsp scaledependent sativus to10 tapered declaration desmodus suillus mudstone
p15
aVrate s1 reaction cm3 molecule1 oh reactions atmospheric measured coefficients determined using lifetime lifetimes uv tide nm fluorescence constants 10
p16
aVpc nc nlcs pmses irregularities okinawa immobilized epiphytes th234 mwb wnao sma lrc nonam forefront redbacked surfactants epiphyte freedrifting electrodynamics
p17
aVworst hf amorphous pulpwood endocrine planners chironomid gorgonians asi brandenburg tar spiroplectinata californias pmpe lakewetland hydration 50s midpoints statewide communitywide
p18
aVcoral reef corals reefs bleaching algae caribbean symbiodinium oyster oysters acropora stress zooxanthellae porites symbionts resilience scleractinian symbiosis escape reefbuilding
p19
aVaustralia tcs mesh household residents inversion longitudinal clustering expenditure ch2 households sam skull wnp stoves prospective lay inversions town annular
p20
aVsound del feedstocks acoustic soiln elbe whale belief giganteus highn engineered 254 mowing hidden lown nearambient alabama oat counted tierra
p21
aVvapor forecasting beach delay andes networks min gps cr observing retrieved groundbased overlying sense online nourishment pearl behaviors aircraft iran
p22
aVmanagement new systems information paper quality developed case strategies approach scientific technologies international knowledge development environment problem network set design
p23
aVformation interval petm eocene carbonate benthic middle boundary late section miocene assemblages basin deposits clay paleoceneeocene lower continental sand paleocene
p24
aVsf5cf3 artemisia 017 nr roomtemperature archaea 242 slices trifluoromethyl diversities oe pentafluoride bobwhite 558 u37k bracken da cleavage mmpa co2emissions
p25
aVheat stress genetic tolerance gene expression protein genes resistance proteins high reflectance trout hot temperatures enzymes cold lower line shock
p26
aVeurasian reactors mjo cooccurring carex drilled graminoid erica ob 1948 fens rubus mimomys canadensis wettest exploiting listerianum yenisey octafluorocyclopentene deepest
p27
aVspecies pollen seed dates spring wetland wetlands bird dispersal arrival earlier migrants seeds germination longdistance days settlement hay uvr passage
p28
aVclimate global change warming species changes model water data results study sea time conditions years high significant future using effects
p29
aVfuels ethanol district fossil ec lightning stakeholders gasoline member voltage oc willow engines impulse gap utilities sugar waveforms chp cardiovascular
p30
aVdiscoaster equilibria hair inhalation mutation pfbi mutant borneo apples vle removes impoverished faroe coli hydrolysis subcritical tewi 2060s domestica gibbs
p31
aVgrazing invasion animal drainage manure tg dcd yr1 arabian se dic invaded invasions urine herbivory determinants dinoflagellate expansions flux alien
p32
aVelevational amazon copper cu butterflies rise chill paradigm crust intrusion lowlying synthesize frog tributary ski extension andean superplume 060 breaks
p33
aVwood infrared absorption ir spectra cm1 spectral bands ring bc spectrum molecule window transform fourier crosssections obtained rings 104 resolution
p34
aVcws etan carbohydrate mtc courses woods elk eelpout pdb institution pennsylvania aerenchyma haemoglobin inception delaware nbc curlews coldacclimated americanus shorebirds
p35
aVcosts cost projects project assessment hybrid decisions benefits electric forestry institutional welfare schemes provide railway private drylands costa bottomup cadmium
p36
aVlichens families genotype percent macroinvertebrate ge sets amp loblolly sums 198 trmm inferior insufficiently est abt highamplitude tmi encrusting decipher
p37
aVpf synchronization lung viviparus lsp satsuma efts slovakia supersequences varden dolly postures hfe7500 oxynitride upwelled chamois rupicapra chf2cho dipe mandarins
p38
aVgpp dune highlands fly diapause potato flies parasitic yellowstone fog indonesia emergence highland dunes influx parasites lodgepole whitebark setup nepal
p39
aVice holocene bp antarctic yr sheet accumulation shelf cal marine ka continental glacial antarctica radiocarbon dating charcoal diatom present sequences
p40
aVnematode nematodes metabolites bottles style airflow speculate repens wine grape salamanders garp awos wd stolen vine revenues cyst iaq quarantine
p41
aVozone stratospheric protocol british cfcs columbia chilling media hcfcs hfcs recover weighting upslope chlorofluorocarbons coke montreal pharmaceutical benign corrections le
p42
aVemissions production carbon global energy gas potential warming results impact organic environmental study emission ch4 cycle co2 used n2o use
p43
aVsoil forest plant increased carbon growth plants biomass respiration temperature soils forests increase trees crop water drought plots significantly leaf
p44
aVlate ma early north pleistocene cooling taxa faunal record margin pliocene glacial rights diversification pacific elsevier pollen reserved genus age
p45
aVenergy economic countries environmental paper policy research development use issues problems human world sustainable impacts public conservation global social power
p46
aVdegreesc indigenous refugia plasmas ybp sri prime 1600 acted crayfish lanka antidrought renal venice pika suboptimal snake tea pikas cliff
p47
aVlucc porewater morphotypes acp dme pipeline minihydropower stripping atoc destabilizing 40ar39ar dn tagb eqmwh tuff megathermal surfacemined bulbil 467 badenwurttemberg
p48
aVradar series velocities autocorrelation correction corrected lichen imaging automated defence eel firstly lfg shutdown tests streamflows anguilla spectroradiometer eels lst
p49
aVdisease health diseases risk host transmission malaria sex infection human incidence outbreaks prevalence development increase vector drought virus infectious pathogens
p50
aVdata remote sensing optical channel measurements monitoring ao channels derived accuracy sensors microwave coverage sensor transfer classification satellites operational horizontal
p51
a.