(lp1
Voecd fostered capitalizing revenueraising carbontax 21002150 chp dh hydrotide superb unitsmsus assert1 meansp christy spencer pin sounding satellites microwave precise
p2
aVdms archaea dimethylsulfide cleavage aom negate vc sargasso influent mmpa claw codno3n pdmsp ddmsp dimethylsulfoniopropionate meterorological dmspproducing sulfatereducing osmolyte synopticity
p3
aVcanadensis dicotyledonous photolyase cpd ranunculus cpds pyrimidine excision cyclobutane photoreactivation 64pp cucullata pover 35weekold pterin lightdependent uvinduced photolyalses photorespiration 64pps
p4
aVblowing foam foams polyurethane hcfc blown pentane cyclopentane refrigerators treaties 141b rpc azbs polyols lccp appliance aer isopentane nonozone europeanstyle
p5
aVstatement ge r22 listing anode legally voluntarily progradation onshoreoffshore aggressively morphodynamic peach caveats festivals mystery alia persica federally rite panhandle
p6
aVchfclcf2cl chfbrcf3 ch2brcf3 appearing chf2cl chfclcfcl2 cfcl3 t295 chcl2cf2cl cf2cl2 ch3cfcl2 chcl2cf3 chclbrcf3 ch2fcf3 cf2br2 calculational ch2fcfcl2 4001600 chf2br chf2cf3
p7
aVdryandra wyalkatchem rcs suffice plug kelheim ha1a1 hohenwart strange bitter shoals waitandsee evade sough uptakes munich scheyern regionspecific victor 199099
p8
aVpaleochannels invading tidalcreek plains saltwater freshwater extension tidal wetlands systems infilled headward mary incompletely reversion rapid destroying feral buffalo lowlying
p9
aVhypsithermal dmws 125degreesw225degreese 475degrees65degreesn antarctic 8555 record owasco radiocarboncontrolled killarneyyounger lowstand ice analogue openmarine sheet sediments sedimentation continental biogenic ka
p10
aVdeferring drought adjustments vulnerability foodproduction warmingclimate ed yield worsen repetitive mark decisionmakers societies killed lasting linking aid develops define weeks
p11
aVregrowth penalty baseflow deregulation co2 emissions equaling regulations reduction projections energy fuel forest coal emission yield potential forests germany herbicides
p12
aVtularemia archaeal acetivorans reading methanosarcineae dehydrogenases 5751492 flagellin singlesubunit methanogen 4524 methyltransferases c2a nonmethanogenic acetateutilizing undiscovered tularensis francisella vc aom
p13
aVisoprene examinations standpoint 3300 justice interview overbank deactivation confines israels initialization impart systemsspannbspfrom injustice addressedp psolomon classhitemissions innbspspan forbes connectedness
p14
aVmosaics swallowtail communitiesp novelties papilionidae tulipifera papilio liriodendron coevolved categorizing nonadapted acceleration level cospeciation mmyr2 agriculture conservation farming tide field
p15
aVpalthough challengep farauti nuclear gladstone programme equation solution energy feasibilities earth suppliesp co2 controversy permits exact resolve propagation integral temperature
p16
aVlamb world storage sorghum forest soil sunflower agricultural grain producing floor economiesp countryregional heat crop descriptors yield interregional mineral pthis
p17
aVgrasshopper 19degreesc gwh electricity nitidus demand grasshoppers thoughts forecasters estimators scenario 500 californias 20year enduse diapause statewide population mw pumping
p18
aVcabbage fly root biotechnology biomass chemical disrupt wastes production egglaying environmentally undersirable crops aiding development problems generations wastelands include year
p19
aVcompliance cafe therapy catalysis hvac lecture chinamongolia polyurethanes cuz nongovernmental indonesias pocket hfe7500 clinically conveyance mid21st insulin unmet cua thermolysis
p20
aVcollembola sng grizzly eelpout viviparus oe sporocarps ageclass tatra mushrooms thoughts 0016 excavations suillus krkonose chamois rupicapra albicaulis regret slovak
p21
aVtd3200 errorfree gps chlorophyll summary implications south speculate data proposals receivers networks errors idea productive vapor automated regard geophysicists attempt
p22
aVsolvent thufur downcore kerguelensis palaeozoic igcc speculates microfossils aam citys decapod curta nat waterbalance miocenepliocene palaeoecology microflora rco2 siple deltac13
p23
aVmonarch fasciata chamaea energy oregon analysis interior monarchs renewable wrentits wrentit conventions described margra new ceonothus sources balds oyamel plumage
p24
aVfield studies natural co2 ecosystems environments realistic measurements attempt centerp chambers controlled lists precluded artifacts autecological nonagricultural draws greenhouses evidence
p25
aVmsu looks connecticut warmings dme quota centraleastern gia reacts rslr rv intrinsically cs137 easterlies phenotypically fund enjoyed rican phc keifu
p26
aVavhrr discontinuities analogies lac vissr labelling nsidc noaa14 gms5 populate smw agendap nonscientists puntil misapplied 01k10k 6910 08k15k 8010 wwwsaanoaagov
p27
aVselections inductive ferruginea pimelea 1215 systematical gagatite airfall pumiceous dared changbaishantianchi seed species 1227 sulfuric sphagnum coastally vegetative albany attributes
p28
aVhough brant insured duck ducks liability notoriously longtailed insuring scoter insurance catastrophes loons scaup mergansers scoters staging interdependent liabilitypolluter earl
p29
aVtherefrom discernible coral bleaching abnormally sst stating stress label stated coincidence implicated cause available evidence recent synoptic insufficient caribbean reef
p30
aVcf3br guinea papua cfc113 islanders waiting lock brines spanthe natures undersea westernmost ufpm queenslands pngqld pwbs pumice convert spanp torres
p31
aVcge computable troubling antecedents 1988p tg yr1 indus methane markets addressed economy conceptual discusses event losses muslim crop approaches approximates
p32
aVdrill labelled hematite palygorskite microfacies kellwasser lagoonal sepiolite 912 frasnianfamennian deltao18 mafic lagonegro turbidites fibrous sporomorph kaolinite clayrich ferruginous tempestites
p33
aVasat kv hcfc142b ninth nadirlooking tes tangent dopplerlimited img cholorofluorocarbons atmos ace vcvmax cm1 grating ca spectral interferometric spectrometer absorption
p34
aVthetast colias umea remanent pupuke palaeointensity phosphoglucose isomerase 10be geomagnetic palaeomagnetic tephra secured genotypes laschamp intcal09 magnetisations quest reversal female
p35
aVpolluting equivalency synchronised synchronisation adsorbents napap uks contest zeolite esi destinations aromatics nax naa olefins supplyside confers naxtonaa dualbed lobbies
p36
aVinsufficiently igpr 1939 mm100yr unsolved rainfallclimatic to600000 18291999 19841999 093degreesc100yr 18761997 18801996 vagrancy 18751958 apprehension meteorologic 19001984 post1958 paralleling 19581997
p37
aVaccretion rate yr1 mm sediment sealevelrise rise sealevel sd marshes mean marsh salt sites moderate supply sealevelchange riserate psaltmarsh marshesp
p38
aVfiscal tritium hto weapon chiba ch3t rokkasho ostlund radioactivity d14 mason rests proving measures recordings observers evaluation supposed past distinguish
p39
aVgallon biomassderived antarctic sheet ice till incremental collapse methanol basal hydrocarb costthan producedand lubricates nullify equilibration past predisposes cost co2
p40
aVawos leptocephalus nematode undercatch wine 02degreesc constraint nematodes europe nipher subdiurnal latitudetemperature computerized climatic superimpose vine distribution macrosoma grapes xiphinema
p41
aVorganisations sibling mycorrhizae architects guaranteed annularis biovolume 35degreesc liter facultatively rocket audits numerate autecological energy architect corporate shuttle pollution effects
p42
aVhydrate etch etching cof2 nitride mmtce perfluorocompounds isomers mehg hydrophobic etched fractures scrubber photoresist reconsider adp ecr episodically perfluorocompound dre
p43
aVassimilates 3020degreesc 6degreesc bolls growth season outside stations freezes growing temperature m3 facility radiation temperatures cm3 target alaska development bloom
p44
aVhair imicola edward marion carpet fouryear tumbleweed rattlesnakebush gift velvet illimitable grama buffalograss deimec islands1 marions 1875 bosnia pculicoides afroasian
p45
aVbagasse incompatible cane tray sulphate sugar fuels fossil externalities biomass deposition electricity valuation million energy use s35 environmental ethanol deterministic
p46
aVmaldives superplume erie laurentian cleanup outgassing seatoair teams activityp chalk paleolithic vendian attest unep magmatism sutton oib swarms 2221 45131422565
p47
aVinvoked supersaturated 1422degreesc monsoon changes disturbance vigil zones territory abrupt russian illustrated landscape no3 underwent natural ocean arabian model geomorphic
p48
aVlfg oceanographers warmpool coare toga vision blower 01584 circulation urban understanding program oceanatmosphere 08597 oceans synopticscale travel atmospheric processes tools
p49
aVclimate temperature species change global warming soil water changes co2 model data environmental degrees carbon increase results energy study effects
p50
aVcm3 molecule1 oh s1 torr 1013 reaction koh radicals photolysis lifetimes sf5cf3 diluent n2o2 fc 298 cf2 c4f6 kelvin kt
p51
a.