(lp1
Vmink 198487 unrecovered skid tributary idaho feedgrains nebraska yakima co2 analog term production enrichment adjustments climate nonfossil accompany reservoir technologies
p2
aV3060 reasoning slushing snowrelated freitas fowler 195089 landfast snowier alert ice variance thinning thickness hemisphere declare southern fast snow maximum
p3
aVsalmon whitefish chinook shinging yakima nppc coregonus neededp 30degrees constance prealpine varirations lavaretus 15degrees45degreesc 45degreesc salmonand nppcimproved tshawytscha populationsbeneath onehundred
p4
aVkjmol1 arh2o retardation methylchloroform tetrachloride sof sf6o2 so2f 1373 31010 vegetationsoil immigration models34 storage12 375degrees earthclimate eightfold adi noec mackay
p5
aVdeltat2x midnineteenth broaden swmonsoon report9 marshall lassen7 1856 intercycle studies16 circumstantial friischristensen 062231degreesc nonpolar climateocean 161515degreesc 45degreesc monsoon 05degreesc irradiance
p6
aVmidcretaceous superplume plateaus paleooceanic vendiancambrian keocean reinvestigated neoproterozoic permotriassic molmy edifice expelled palcooceanic carbonatesilicate 125degreesc silicaterock ontongjava 48degreesc 77degreesc 14degreesc
p7
aVunravelled organised society climatology geographers interact list physical character urgent profound distinction replaced decisions nature probable radically drawn societies actual
p8
aVperipheral quasiperiodic aesthetics alarmingly monuments chukar withinpopulation biogenetic partridge penvironmental betweenpopulation populations diversity core plants sofc variations conventional genetic human
p9
aVprehistoric alhumus zealands climosequence yearmonth thermometric bomb minimum turnover maximum temperatures soil extreme mean contents encompassing slow temperature little diurnal
p10
aVimplementable confidencep contends deter execution renegotiable consult confidencebuilding legitimacy pensuring discretion agreements compliance treaties signatory political aside domestic nation overly
p11
aVcirrus iap ras jets gm mmco contrail clustering contrails anpp 1degreesc cont earthsystem src depressions steppe iod sires frfs epri
p12
aVmalaria banning mmmonth 4xco2 parasite malarial timeevolving warn infection parasites expresses buying responsesp pwhile abruptness pconsiderable obediently jumped millennialong surprise
p13
aVcarbide encapsulated restrictedly housekeeping 046116degreesc 038075degreesc chlorobromocarbons chiefly 18dayold 36mug 228mug 124mug unrestrictedly 0dimensional uk slowrelease hcfcs halons calcium cfcs
p14
aV0dimensional unrestrictedly bombay foodloop endorse dissent phasedout 143a buying madras citiesp convergep channelled effected lt5 sizeclasses remedial cities insist water
p15
aVprotectionp disincentives ppoland polands poland energy aids enacted quest translate international experiencing laws regulations environmental vast incentives savings depend transition
p16
aV18611986 oftreported isles cyclonic drop experienced percentage storminess days flow 2degreesc pertaining 1degreesc annual claim originating matched raise historically british
p17
aV1974 multiplicator eitht telephone hydrogenfueled organizational firms obstacles energy consultation electric nonfossil control co2 possibilities bundle conservation mediumsized energysaving indepth
p18
aVgashydrates thermostatically shortwavelength processesp exerting kayen 1988a spikes carpenter 100s nisbet revelle kvenvolden subbottom feedback aerosol cloud methane albedo cycle
p19
aVfsu cancers lung lacuna redress costed persuasion ecoregion elderly bioavailability energyp soilvegetation 617 1181 averagep semideserts disease cfc pools debate
p20
aVrumen methanogens oxalate multistage clones obtusifolius metabolite electrochemically enclosure methanomicrobiales phylotypes buffaloes wholefarm reductive methanomicrobium antibiotics methanobacteriales simplifies stewart phylotype
p21
aVwnpsm deltat2x palaeoclimates climates36 09degreesc models78 rewarding carbonemission iceos carbonsaving climateprotection 45degreesc co2quadrupling 1pctto4x umbrella multilateral international sensitivity currency nations
p22
aVcapturing multisite eds completing 207599 rotated initiative entrance ppf epsilon co2acidified regenerating spicules cooperation upwards 40yr customers flank to6 b2a
p23
aVox irreducible casestudies 16degreesc 1h may1 3672 deltat detergent gd lactation intercorrelated hemicellulose cows o3 ozone ecological ch4 uv digestibility
p24
aVnia interannualtodecadal kenyas changefourth scene teleconnectionp discuses atmospherea odmodel carbonin proportional level aerosols discusses mans increase sea gases greenhouse development
p25
aVgeodetic metrology oscillators cesium vlbi rubidium artifacts maser anthrogenic space time level instrument sea frequency references aboard epoch pose circulation
p26
aVecc nitrapyrin ppoor bullocks equivalentsp delcourt coaluse deregulating imperatives 1m2 geobotanical threetiered icerich 10101012 prudhoe needleice 1061010 scalingup photointerpretation webb
p27
aVloggerhead 7degreesc sq bulkheads levees mi sheltered vanes pclimatologists perphaps midcontinental unpredictablep 45degreesc 31150 alligator stork pelican 1045degreesc romain 600700
p28
aVmycorrhizae chcs dinuclear ligands vitality ecosystemsp chc electrocatalytic electrocatalysis pricingp frameworkthe onoff rateofchange reformulation ratofchange propounded expressed12 pclimate dissipative caustic
p29
aVteq ccl2f2 grabsampling hexafluorine sf6o2ar trifluoromethane chf3h2ar cl2 sf6h2ar chf3o2ar ccl2f2o2ar ccl2f2h2ar balloon cfc113 thailands uvphotolysis ccl2fcclf2 northernsouthern ecd teqs
p30
aVmkm 71degreesn 10e21 10e18 yukon deepest bordering beaufortmackenzie hydrates hydrate methane deep stability predicted depths deeper detected thermal wells area
p31
aVmethanes coal mining indian subcontinent british equation methane uk endorsed potency rise doubling agency satisfactory hierarchy happen ccm simulations climate
p32
aVsit awaits 003degreesc activist decimation defeatist scenery poisons gaia crossroads patiently soil matter organic 60 engineering rothamsted co2 food debris
p33
aVngvs epris unsponsored foreshadows pafter deadlocks hardship fuelsp entrenched desperate sessions deceptive refusal lowdemand airport vehicles ecological evs ecosystems airports
p34
aVbioconversion erie dlwc osu discussedp fostering persuading desiccants mayflies vitreus fulvescens hexagenia researchmonitoring endpoints haliaeetus acipenser walleye bald sander falcons
p35
aVficusindica lifespans 189 hcfc124 hfc125 epi ppfd pricklypear arbitrarily numbered 650mumol unity 1464 cactus hectare1 index gwp radiative effect forcing
p36
aVhedging gpbs gpb1 statesp colonial kaolin hedge cutbacks theorists mauritius environmentalism hales feats vincent psystematic disciples empires stephen arts helena
p37
aVseedling wrightii 308 boreonemoral bsp 2829 glandulosa individualistic 175250 fagus reforest benefitsp testudium sedimentplant wrigghtii 443 nondefoliated berlandieri leucotricha aristida
p38
aVsoilnutrient synchronic aggravated therefor tenable outstripped facet perish bygone habitats vegetation metabolism co2 disturbances forest enhance past expected oxides present
p39
aVpassivesolar aegis culminate jalo schulmans intemational promisethe solidbiomass powergeneration sterling hmso practising mentallystimulating 19871 thrift ecu programme school buildings techniques
p40
aVnebraska rico puerto treefrog sepentrionalis competes cuban macros ricesys ricemod princeton 19711991 066 placements forestryplanting 106tsomewhere windbreaks shelterbelts energyconserving spatiallydefined
p41
aVmsr th233u breeders moltensalt amsb twe accelerator upu synergetics thorium 233u thorimsnes actinide physicalbreeder fregat radioactivewaste thu renewable energy discussed
p42
aVvegetal reinforcements hfo depreciation upwelled meco cantilever coalition robustly 0304 redistribution lifting inflorescence satelliteretrieved granter john feed kgha eliminates year2100
p43
aVco2 climate global carbon emissions change energy warming model temperature changes greenhouse gas soil increase atmospheric models emission results environmental
p44
aVicevs fuelcell fcevs refueling bpevs pburning wholep conviction generalpurpose hoped batterypowered internalcombustionengine solarelectrolysis lifewith fcev electricmotor bpevszero hydrogen especially vehicles
p45
aVcfh2ch2oh seaweed pdag kondo suga k1298 exp330 nagai additivity k10 26642672 sekiya ch3ch2oh 45t kaise tokuhashi costcompetitive researchdriven rig cre
p46
aVkton n2onyear gcmbased firstcut 19602040 1199 4063 rata 1059 01degreescdecade 5990 534 scenario n2o scenarios emissions optimistic hypothetical reduction irrigation
p47
aVshading skeptical convinced appearing defend flooddefence impotant blockage microrenewable installers wars 47degreesc correlationsp sheltering 24degreesc largerange alleged bipv school cfcs
p48
aVaalenianbajocian bathoniancallovian bathonian pliensbachian phytogeographic eolian epeiric megamonsoons variegated palynofloras cheirolepidiacean cheirolepidiaceae punctuated plantbearing classopollis coalaccumulation 028066degreesc hfc143a ccl4 wellconserved
p49
aVso2f2 wilderness nonatmospheric sulfuryl 0196 1019 ktonneyear prophylaxis biomedical perish dimensional supervision popularity exacerbates ftirsmog ko3 recreation koh kci decade
p50
aVorogen prograde generalequilibrium climatestabilization indiaasia collision 1018myr 1214 energyco2economics fossilfuelgenerated intercompared geol ma1 1994a paleoatmospheric 10181019 molesmyr co2greenhouse 201230 sec
p51
a.