(lp1
Vfly cabbage pupae apatite salinealkaline silicabased konservat microlaminated lagerstatte preservational mudstone fairy concretion celestite thrip concretions autochthonous brine salinitytolerant lacustrinederived
p2
aVgps carpet labelling receiver recoverable receivers needing populate gift illimitable buffalograss tumbleweed grama velvet rattlesnakebush wool impoverished positioning geosphere hair
p3
aVbehaviours schools remedial professions comfortable judgment ecosystem buildings pheromone policy passivesolar yellowstone effects change changes climate attributes programmes earthbased drier
p4
aVwarmingcooling debated novaezealandensis hyde fuelsnatural fcvs perfluorobutadieneoxygen biokinetics 19551976 meliorating palcooceanic fatalities zerocarbon bohemian 6500 landatmosphereoceanseaice conjunction siltation spectrom winning
p5
aVuvr ciliate cataract glaucoma prr trachoma blinding trachomatwo cyclidium surgery photoenzymatic chlorophyll photoreactivating blocking acrylics uvblocking implications south dna1 speculate
p6
aVbanning ox surprise exceedences 16degreesc therefrom percent coral bleaching sets automotive ge abnormally concentrations regional ozone o3 10 slowing ecosystems
p7
aVmicrofauna interglacialglacial ma pacific pliocene pleistocene assemblage late ka north faunal approximately frequency variance polar 16182 sediments 2730 1825 series
p8
aVnematode nematodes underestimating immigrating cervids leptocephalus stolen rauschia artiodactyla murielus nematodirinae urichi tayassuids zooparasitic nematodirus lagomorpha hostswitchingevent lamae turfs arcticboreal
p9
aVestimators sps raindays grasshoppers rnadna schematic grasshopper pallida lightdeprivation cavernosa slushflow faveolata stability identifiability public nitidus issues assert1 loss population
p10
aVputting mmdecade credence lend plumage sheet ice antarctic fasciata oregon interior west collapse chamaea sealevel recognize till legislation rise sea
p11
aVscrubber 3525 fgd 3020 bolls aborted desulfurization 2515 3020degreesc 4030degreesc comosus 3025 nitrogensulfur undesirable deltavalues growth 306 deltaparts emotional ice
p12
aVsacramentosan salinitygreater pfossil var hfoc125 500mb compartmentalization 334 507 contractibility studies123 deposition568 bottleneck frontal resinosa intercompressor nbtisi 1871 tundra 19931994
p13
aVzoonotic cradletogate planets leadership es periodicals cafe customer paul pastureland mycorrhizae engagement abl controllable angeles vaccine pidgeon hemicellulose quads broaden
p14
aVsn dip coldrolled redress annealed phosphatability tramp n2h2 phosphating ocean oceans exchanges problem major limits consideration oceanatmosphere convection grade circulation
p15
aVcans lengthy oceanographers hydrochloric lock audits activityp dioxide carbon brines kenyas change understanding organisations corporate public pollution energy greenhousegas tools
p16
aVdme aster attraction scanner hough 20degreesc dipe notoriously autoxidation iodimetry peroxides sixteen dee resourcerecycling selfheating cloud base height sensor temperature
p17
aVcellulosic neurolipofuscin com homeotherms ethanol ageassociated crustacean fuel bas poikilotherms biomass process cellulose fermentation produced researchdriven costcompetitive concentrated urban ethanols
p18
aVdengue metamorphosis albopictus aedes arboviruses zoonoses ae btv hatched refugees aegypti cholerae campus transmit pandemic lyme mites 427 rickettsia haven
p19
aV1890 chinook commissioned kushiro 1855 tshawytscha jomon salmonid 50006000 salmon lake ice lakes erie cover timesincefire great ainu 6000100 residence
p20
aVicerich interferometry dh fostered landfast rca aboard 3day resolute fouryear noncommercial 989 immediatelyp ice 3ton thickening countries sea survivability electrically
p21
aVindus unmitigated widen bioreactors kaolin troubling maizecowpea compl compll antecedents epicsear hillflow pakistan wuet uk wuec runoff acceleration analogies coal
p22
aVgeomagnetic cge computable insuring warmingclimate drought world losses economic markets economy climate catastrophes event field natural insurance impact adjustments change
p23
aVlung isoflavone soy merrill 6omalonygenistin genistin promotive disease isoflavones health hazards human energyp bioavailability elderly cancers eye preexisting children cfc
p24
aVcities japan hedging days osaka nights tokyo number large connection exceeding probable 1950s temperatures reaching numbers showing concerning discussion gives
p25
aVinterannualtodecadal level discusses teleconnectionp sea rise pthis helping accompanying difficulties paper nino attributed examines apparent specifically accumulation reliable predicting determining
p26
aVinsufficiently unsolved palaeoecology livebearing 2350 lobulia diatombased gwa tinted eyelids scincid skinks devils moc rampup climate wg1 filteringout variability cloudradiation
p27
aVsimplistic subbasin feedback snow explanation scenarios models hypothetical 17 irrigation darker overly regional firstcut moderation runoff research radiation needs gcmbased
p28
aVimpulses shock series interannual differences axis positive state anomalies random values temperature hemispheric frequencies cru negative cointossing cartesian walk mo
p29
aVcrosscorrelation departures deltat2x bootstrapping questioned relying data hemispheric consisting statistics procedure confidence comparisons sets assessing according despite linear set records
p30
aVloops onshoreoffshore dune fertilization unvegetated eolianclimatic rcm dunes fe release n2o coastal productivity 029m antecedence factors 2030ad dunescapes likely morphodynamic
p31
aVclimate temperature co2 change global warming species carbon energy changes emissions model soil water increase environmental degrees results data study
p32
aVattracts connectedness forbes ecology td3200 rainfall utility history2 rate1 errorfree epri warm fish dispatch errors rain acid tablelands australia automated
p33
aVspikes 2540 hydrates methane hydrate hg gashydrates pines methylmercury mkm thermal depths released gas release fish stability distribution deep locked
p34
aVr134a behaviors facilitation diffusivity r12 r152a purchase wine grape cryogenic testes hvac rabbits staff minority balloon r410a toxicology anglia membership
p35
aVcm3 molecule1 oh s1 radicals reaction photolysis flash crosssections koh cm1 1013 sf5cf3 296 coefficients k2 lifetimes 298 abstraction cf2
p36
aVmistiming mistimed state savings 5733 fuelshence regret energy energyuse palaeocene decoupling policymaking underwent attempting reliance myr changes washington deepsea excursion
p37
aVimmigrant ppfd islet mimomys unity flanks tuvalu microtine paleochannels islets subgenus midholocene atoll biochronologies sites saltwater wetlands cemented coastal hydrology
p38
aVclays wtp sofc kaolinite latitudes conventional plants middle deltao18 palygorskite cell generators coalfired reduced plant power gas eocene fuel increased
p39
aV031 journals cm2year1 993 season1 1075 midtransect 885 trenched tg trenching yr1 ricecropping methane rr bodies tgyr1 freshwater deducting emissions
p40
aVtriangular emissiondata sizeable inventorisation sws misguidance compels guideline backed msu channel abatement msus savings efficiency emissions 19791990 anomalies 001degreesc methodology
p41
aVespoused zoospore variations intergovernment agdd changeorganisation abnormally aboriginals 2propanol 1997 nph metropolitan surveillance treeplanting 19581999 2445 constructionphase additionally assemblages 36mug
p42
aVghz sps energy 245 shortfall photovoltaics feasible fossilfuelgenerated energyco2economics fossil increasing permissible means intercompared technologies nuclear fission reliance option demand
p43
aVturtles modis iberian mercury turtle hatchling taxon clades hatchlings omzs sex isoprene spanish questionnaire pivotal fault tsd floristic greenup unexpectedly
p44
aVpot phi asat 390 carbide 2ch3cooh calcium nitrificationurease wollastonite 2ch3coo casio3 caco3down 204 sequestrated ca encapsulated urea 4246 vmx milkanova
p45
aVwastelands venture observable baselines projections mexico companiescountries insensitive models sq financially computer shinging surrounds warming biotechnology suggest climate biomass certainty
p46
aVdelta15n biomassderived unconventional exploiting stabilising gallon brf halting marionis defend trophiclevel appearing deceptive interisland energyenvironmental snowsurface compoundspecific chfbrcf3 cfcl3 t295
p47
aVrift bin hartebeest 1766 pallas assorted pif alcelaphus diversification lineages buselaphus refugiabased volatility seed dloop sources differencing diverged perlineage correspondences
p48
aV925 moon towed southtonorth phuman keifu ctd maru foresttundra orbit fires satellites chemicals tree effects plan forest depletion deltat2x atmospheric
p49
aVwhitefish prealpine coregonus smelt pikeperch yearclass 30degrees lucioperca vendace spawners fry vanern albula stizostedion hjalmaren icebreakup eperlanus phyto vattern icebreak
p50
aVbowerbird newtonia 1564 vis bic 13fold tripteroides bacteriae ft2 ztd botanically paleofloods corn600bc alternates alloys delimitation crude matrixpatchcorridor mestanestos anthropogenic
p51
a.