(lp1
Vfish protein genes predation citation fishes fisheries spawning proteins salmon marine fishing delta15n fishery synthesis breakdown gcc freshwater stock seagrass
p2
aVforest vegetation forests tree sites biomass trees area site soil ecosystem plots root boreal respiration total litter ecosystems growth growing
p3
aVpetm eocene benthic boundary ghgs interval section clay paleoceneeocene thermal foraminiferal fossil early paleocene middle cie planktonic turnover paleosols rocks
p4
aVozone depletion 2003 stratospheric refrigerants layer compounds insulation cfcs refrigeration stratosphere protocol used conditioning hfc134a hcfcs hfcs substances film odp
p5
aVpopulation breeding size populations variation selection migratory wild sex arrival reproductive genotypes infection ndvi bird females migrants earlier males adults
p6
aVmagnesium pi cradletogate cml mtc wolves diameters archaeal nonflooded dp 216 zoonoses nre 208 gobi coarser telemetry subtracting joining von
p7
aVpacific atlantic north tropical sea late records record global monsoon glacial southern circulation past events oscillation enso cooling early event
p8
aVtyphoon cao dogs finegrained retail feather nepal cardiac kilimanjaro morphotypes inhalation pbw alleles capsule nonbreeding consumptive spiny elucidated chironomid ldd
p9
aVamphibian desiccation biooil bd pha frogs frog 142 berry upsilon fu crp matured sicily coldstenothermal pd 247 ontogeny ff pdb
p10
aV2009 glass education wall comprised dissipation coating cultured tio2 weighing cardiovascular wing tits fronts buildings eel 238 millepora assay photobioreactor
p11
aVcarbonation mussels mussel galloprovincialis nmr welding ae ww pika bicarbonate amine pikas attributional mytilus solder hatched gl reactants gigas wadden
p12
aVenergy emissions carbon rights reserved elsevier fuel power fossil co2 fuels greenhouse emission bv biomass electricity gas ghg use renewable
p13
aVmethane permafrost hydrate gas sediments ground hydrates frozen continental release sediment shelf depth thawing deepsea slope pore radar shallow thaw
p14
aVco2 emissions gas ch4 production n2o emission methane potential kg greenhouse gases rice warming using total ha1 waste compared gwp
p15
aVglobal environmental climate change warming impact use impacts potential systems results study paper management used water new production life analysis
p16
aVcosmic propagation ray permits rays seals containers acoustic del canine usecover lucc dme dehydration oviposition door agulhas institution snowice saltmarshes
p17
aVforcing radiative cloud aerosol aerosols cooling albedo radiation holocene greenhouse dust clouds so2 sulfate optical sand particles anthropogenic reconstruction properties
p18
aVglobal warming co2 carbon water temperature ocean climate increase surface atmospheric changes increased change similar response heat effect results effects
p19
aVrodents rodent 275 cwd 171 cliff designers clines basel timeconsuming inhabits lodgepole p001 inefficiency nhg shan longwinged enchytraeid cautious soilwarming
p20
aVchanges climate change species areas winter events summer distribution conditions warming spring global years coral rainfall mortality region south southern
p21
aVcoastal wetlands erosion wave uvb land radiation domain coasts settlement shoreline dot inundation dune blast nearshore infiltration shrimp ceramic abandoned
p22
aVabsorption s1 reaction using plasma atmospheric infrared measured cm3 reactions sf6 oh molecule1 nm coefficients o2 lifetime coefficient spectra used
p23
aVyr1 wetland tg o3 ct nt cu om ac leakage oxidant beijing poland episodic ppb jellyfish chemistry pdfs percentile laws
p24
aV2007 2005 urban japan cities a1b italy geoengineering parasites shock arc caribou impulse 16s iran induction kyoto los gst rt
p25
aVice antarctic sheet upstream antarctica sheets oc west 1011 sigma highaltitude rift albian grade enzymatic nd chla mackerel tl optimise
p26
aVap moc uvr oyster tuna niger syria swh kin swe brahmaputra pigmentation pastureland irregularities phenotype pmses nlcs ganges confluence perturbing
p27
aVmjo c1 poc durations classic estimator cfd subunit angiosperms massif disassembly encoding trips estimators rehabilitated primers featuring ejector awos nozzle
p28
aVnitrogen delta phosphorus ratio cn chemistry etching forage ion silicon etch limestone hay ions fractionation biogeochemistry landslide glucose amino mmol
p29
aVapple tsi pla vessel amf logistics vessels relying necrosis waterrelated dmpp polypropylene elasticity 060 nigrum clams qilian nov empetrum narwhal
p30
aVomzs bears lfg questionnaire sas tair chinensis dee whitebark organicrich bryozoans pod surrogate crustaceans 286 gastropods slovenia grizzly p2 enamel
p31
aVcyclones cyclone meadow rocky mongolia spray inner steppe irradiation metapopulation danish lot tridentata snakes mountains exchanger person lp reed urgency
p32
aVethanol losses toxic gasoline utility bioethanol insurance acid architecture windows renewed nowadays tipping gasses cellulosic utilities bryozoan floodplains e10 19971998
p33
aVdoi barents administration generators jatropha import nmol sofc governmental willingness reprocessing employment exergetic zoonotic rats 2000s enter pay conditioners suppressing
p34
aVdrought deficit complement decisionmakers pdsi campaign neighboring king starch amax tea viz dss palmer rewetting pumilio ammonification bourget 305 rdark
p35
aVsoil soc cm maize tillage agricultural mexico rotation farm farming laying notill rainfed mexican acted fallow agriculture mbc disturbance rye
p36
aVmis visited nc leadership crt immobilized eez aops carotenoid paw conspecific asynchrony ibis basque boulders flatfish groundnut lobster certified plantavailable
p37
aVbaltic modis lichens highlands lichen kenya diagnosis highland lst echam4 spectroradiometer madagascar spiders actors thanks csm observable hssf retrieve extracts
p38
aVspecies temperature degrees growth temperatures effects plant elevated plants populations increased higher range responses diversity high stress significantly community change
p39
aVgrazing establishment spread seedlings invasion interactions fungi niche pathogens pathogen nee highelevation ao snail rhizosphere invasions herbivory tolerances obviously rrna
p40
aVburnt mycorrhizal tb municipalities perch ungulate ciliate arabidopsis ungulates horses sci rmse mm5 underlines elbe timberline hypogeous daphnids devising pome
p41
aVel nino pdo gpp oscillation ar4 pe hotspots clades abalone ninolike pb interestingly colombia breaking penguins cm21 ninos penguin galapagos
p42
aVclimate temperature model global change warming changes precipitation data models mean increase using results annual degrees century used period future
p43
aValkaline rfs resorption 480 steels indogangetic acceptors photocatalytic magmatic textured ricewheat mongolica igpr andromeda hydroquinone hydrogeochemical backup aco2 wrightii biofilms
p44
aVsea level lake rise sediment sealevel salt ad tide rock tidal mm marsh cm marshes levels gauge images rate mangrove
p45
aVbeetles clade lineages dung bees cadmium phylogeny ptarmigan brood mi ml haplotype gtps mld tuatara topology benguela ancestral stochasticity pollinator
p46
aVsst 2011 correlations anomalies channel projection co2e reanalysis ssts microwave wind monte decade1 carlo bias anomaly drift hc pp dtr
p47
aVson respondents impose ht ethical contrail electrophoresis lt contrails currency plague walleye sorbents anemone debt emitters austrian der collectors debriscovered
p48
aVb1 visits museum ships decidua seabird diarrhea bergmanns snake poisson rme naphtha spacer provisioning phylotype emigration barometric fco2 buoy subduction
p49
aVlengths symbiodinium prospective 212 pocp mg1 residuals deepocean mekong agb intracellular angular infestations anhydrase polymorphism sequentially aam ccf sydney mutant
p50
aVamoc alloys aphids ignition corrosion dehiscence hf greenup nickel stroke ecotypes hydration pertaining amorphous cathode microhabitats 019 isles immersion xrd
p51
a.