(lp1
Vemissions carbon global energy co2 warming climate emission change greenhouse potential production environmental use study impact gas systems paper results
p2
aVforesttype hydrogeochemical wbt massbalance alhamajaraba olympic bwca occurence cnp dedolomitization bag jurisdictions lane e180 buildout liner toth pnetii canoe landisii
p3
aVrefrigerants refrigerant ozone used potential cfcs nf3 air refrigeration pfcs conditioning halocarbons hfcs cleaning hcfcs montreal taiwan ac r134a protocol
p4
aVclimate model temperature warming global co2 change changes models increase atmospheric surface forcing precipitation degrees results mean response using greenhouse
p5
aVoutbreaks outbreak accumulative enkf overcoming equitable timetables atelopus twigs o2c4f8o retinella subprocess digesting awr c4f8o siliconnitride co2c4f8o strictly book iaec
p6
aVcaribbean ofmsw pens solder thymol leadfree ccw arh2o kjmol1 cia barite abm xf eqt ietm dm1wk1 molg cfug dm1 neochloris
p7
aVcu hfcv hybrids ttw sebf igei dip tlcl thch ffov cutio2 cu2o tlch coldrolled annealed phosphatability tde lfo photoreactor palaeoecology
p8
aVsoil n2o ha1 kg emissions fluxes oxide co2 nitrous fertilizer m2 treatments increased respectively tillage manure measured net mg field
p9
aVa1 cf poverty sequence swine cs tp c13 prepare toc zealand cg chicago methanoplanus aphid meal turnover enrichment diagnostics inhibitory
p10
aVmolecule1 programme techniques 296 cf3cfchfz cf3cfchf cf3cfchfe crossscale tailake applied1 ko3 plow disk actors moldboard mycorrhizal usiji iea rwi proposals
p11
aVgrowth trees tree bc pine rumen drainage methanogens gene biomass sequences gtc harvest cal clones maturity foliage effective biochar allocation
p12
aVsnowbeds bob octopuses winners agency pgp co32 ohreaction als wan losers snowbed sandstone piperine 20412060 wns gsw airline commissioned bottomland
p13
aVch4 rice soc mg treatment treatments npk ruminal nitroethane flooded 30 burnt sativa calcium oryza fym acids steers atom administration
p14
aVmultistage propulsion usecover collapses nama highconcentration modulate diagnosed latham eroded jb barely app defence compressibility cystpi proteinase gelucire subperiod alcoholic
p15
aVpollen flowering electron spectroscopy tio2 scanning reproductive microscopy alloys spectrometry sorption xray sorbents silver visible reversibility bonding tissues photocatalytic molten
p16
aVcities urban ep services peatland cyclonic index metropolitan marble mol1 ap sawmill 24h agencies bearings matched sonoran storminess pocp multilateral
p17
aVnuclear deposition exposure fusion gis so2 reactors sludge melt acid ts doc fsu fission acceptance sw sar nematodes ds 101
p18
aVabatement cotton somali analysing spacer seams claimed oif seam harmthreshold answers scrap nasturtii ftd mixer dew cgcm2 bem creeping african
p19
aVdiseases agulhas isomer itrpp itrppsc amip binders mis dengue pco disease endguadalupian fever activase koh vectorborne glb aolike vegetationalbedo berger
p20
aVlint vetchrye cchp procrastination surrogates ltp 120130 exponent moderation hfc245fa delta13corg surrogate landcoverchange simplistic ies souma fluventic mk30 hint kraft
p21
aVeocene red cie metamorphic dune gm trireforming wnpsm malic photoevolution cm20 eccentricity livelihoods itrppcc uplift orogen early irradiated pbr ih2
p22
aVcf3cf2cfcf2 cf3cfcfcf3 isopycnal pgwds diapycnal caoh2 serpentine eastjapan gh amenagement courbes niveau shockinduced radicalinitiated 727 packet cf3cof dndcrice rainband flyash
p23
aVo3 ppb maple ozone oxidant reactivity uv cont hcl retrieved aod lagrangian o1d leg m8ho3 darf labs upperlimit smallermass mmo
p24
aVclimate change global species changes warming years climatic conditions areas temperatures increase data sea temperature level events forest rise high
p25
aVdomestic satellite cows parties stringent instrument obligations concentrate welding ji emergency slr lt digestibility caps space satellites fat herd signatory
p26
aVmethane oxidation bacteria genes methanotrophs methanotrophic constants 16s amendment dna rrna bacterial velocities photobioreactor mines mining pmoa chicken contributes organic
p27
aVsand scs bloom 00 clipping texture defoliation anticyclones aeuro excitation soybeanbased draining mgyear nationwide poc s2 ril firewood eqw traveling
p28
aVextinction permian limestone lolium megafauna bmt triassicjurassic disappeared climatedriven microbialite delta13ccarb swabs kyear bess evaporite dsf permiantriassic symbiont mycorrhizae bivalves
p29
aVenduse laminar cf3ch22ch2oh jja baroclinicity nonmarket wastelands specificities argentinean h2o2co2 i2 econometric ates ism activebreak nextgeneration gasinsulated 565 bonito prohibitively
p30
aVmarine methane ice sediment sediments oceanic ma sheet isotope petm pco2 ocean atmosphere early glacial release uvb antarctic continental benthic
p31
aVco2 gas energy power warming global process fuel using hydrogen heat efficiency fossil dioxide coal performance high plants combustion oil
p32
aVscore 85kr pocu fecal arose ccps organics chu ccr midpoint 436 bcd ccp methaneproducing chlorate pt tri ihti multisi propionate
p33
aVdme crash woodrats levelling carbonconcentration cers ecodrive edulis iwato midrangemesic bodysize registration activate oda pickups executive precrash bergmanns sis pediatric
p34
aVtravel tourism deserts personal britain deliveries tin nonenergy post abalone monsoons twh bk indias sandstones list evening destination gwfs jurassic
p35
aVpft file fashion eto tvs ciliates scheyern breaking fender ppepdm encouragement gtg gnss mricgcm22 treelimit fenders opercularis midpliocene legacy npogcm
p36
aVlwr delta13cleaf msr croatia sweet itc controlrun thu seaweed delta13cring moltensalt homegardens ort isobutyraldehyde thcs amsb din inshore ffci ppn
p37
aVextending karoo spb breccia infestations georgia 3525 friedlingstein aureoles pion 2520 nubra ballmilling zc r3 3025 meehl sstas palaeoclimatology 399423
p38
aVcrf novozymes covariabilities steppuhn emh sanitation rlc npkmg npkca npkcamg flowers gmnue micheels pennsylvanicus 26642672 iga hungarian w1 federally dt0
p39
aVbuildings ronozyme uk lighting pound wx ets tripled rape oilseed co2g scotland expenditure pidgeon annum arrow intervening eos thermoplastics hlm
p40
aVocean sea wind atlantic north ice deep wave frequency arctic circulation storm overturning salinity formation activity hurricane melting dms meridional
p41
aVaircraft module uppedante gainpgaas sps london pledges ch3cl tropospheric 245 norse abl ch3br emulsified nets ghz sphagnum ecoload nonconvective chemistryaerosolclimate
p42
aVfruit usuv dimensionless vegetal mesopause rubble atlin pid dmc cha mulch eap hydromagnesite town so2f yces 20072008 mslp fuelborn reinforcements
p43
aVwaste fuel production fuels biomass ethanol diesel energy landfill wood vehicles transportation environmental biogas biofuels vehicle materials methanol biodiesel solid
p44
aVpowerful sf5cf3 ahs legislation c13carb contrail recognize contrails citizens aster coli objectively putting cherry acknowledge smalcia icts airtraffic odor casing
p45
aVozone stratospheric compounds depletion atmospheric cf4 lifetimes molecular stratosphere infrared measured etching layer gases pfc atmosphere compound fluorinated semiconductor urban
p46
aVobtusifolius cf3cf2cof ecatm koh ntc inducing 25000 545 tbab yr2 ni2 fe2o3 couteaux gris hmda fe2tio5 labeling 13c hibernation bragg
p47
aVsofcs deltaleaf multistaged mainstream fault imperata turbineco2 sofcgt sofcgas ch4yr freegas chart em lions standreplacing wdss wds greenlanders hokuto lion
p48
aVh2co3 tipping electrode ireland worsen bai glucose irish fees wue biooil ameliorating aam h2co3n oligomeric chemicallooping 305 breeder sugars nbp
p49
aVirrigation so2f2 apple childrens salmon ulo invasion biogeoengineering rocky child 690 austrian fulfil saskatchewan cereswheat yucheng followup leatherbacks fluviatilis drip
p50
aVcomposites ppc payments impose pollinator climateeconomy rho dice socialis llj ammassuo pes reassembly gonadal appropriateness 1018 sp1 affinities petroleumderived ia
p51
a.